target datalayout = "e-m:e-p270:32:32-p271:32:32-p272:64:64-i64:64-i128:128-f80:128-n8:16:32:64-S128"
target triple = "x86_64-pc-linux-gnu"

%struct.Session = type { ptr, ptr, ptr, ptr, ptr }

@CurrentSession = external global ptr, align 8

; Function Attrs: nounwind uwtable
define internal void @shared_record_typmod_registry_detach(ptr noundef %0, i64 noundef %1) #0 {
  %3 = alloca ptr, align 8
  %4 = alloca i64, align 8
  store ptr %0, ptr %3, align 8
  store i64 %1, ptr %4, align 8
  %5 = load ptr, ptr @CurrentSession, align 8
  %6 = getelementptr inbounds nuw %struct.Session, ptr %5, i32 0, i32 3
  %7 = load ptr, ptr %6, align 8
  %8 = icmp ne ptr %7, null
  br i1 %8, label %9, label %15

9:                                                ; preds = %2
  %10 = load ptr, ptr @CurrentSession, align 8
  %11 = getelementptr inbounds nuw %struct.Session, ptr %10, i32 0, i32 3
  %12 = load ptr, ptr %11, align 8
  call void @dshash_detach(ptr noundef %12)
  %13 = load ptr, ptr @CurrentSession, align 8
  %14 = getelementptr inbounds nuw %struct.Session, ptr %13, i32 0, i32 3
  store ptr null, ptr %14, align 8
  br label %15

15:                                               ; preds = %9, %2
  %16 = load ptr, ptr @CurrentSession, align 8
  %17 = getelementptr inbounds nuw %struct.Session, ptr %16, i32 0, i32 4
  %18 = load ptr, ptr %17, align 8
  %19 = icmp ne ptr %18, null
  br i1 %19, label %20, label %26

20:                                               ; preds = %15
  %21 = load ptr, ptr @CurrentSession, align 8
  %22 = getelementptr inbounds nuw %struct.Session, ptr %21, i32 0, i32 4
  %23 = load ptr, ptr %22, align 8
  call void @dshash_detach(ptr noundef %23)
  %24 = load ptr, ptr @CurrentSession, align 8
  %25 = getelementptr inbounds nuw %struct.Session, ptr %24, i32 0, i32 4
  store ptr null, ptr %25, align 8
  br label %26

26:                                               ; preds = %20, %15
  %27 = load ptr, ptr @CurrentSession, align 8
  %28 = getelementptr inbounds nuw %struct.Session, ptr %27, i32 0, i32 2
  store ptr null, ptr %28, align 8
  ret void
}