; Function Attrs: nounwind uwtable
define internal void @shared_record_typmod_registry_detach(ptr readnone captures(none) %0, i64 %1) #0 {
  %3 = load ptr, ptr @CurrentSession, align 8
  %4 = getelementptr inbounds nuw i8, ptr %3, i64 24
  %5 = load ptr, ptr %4, align 8
  %.not = icmp eq ptr %5, null
  br i1 %.not, label %9, label %6

6:                                                ; preds = %2
  tail call void @dshash_detach(ptr noundef nonnull %5) #16
  %7 = load ptr, ptr @CurrentSession, align 8
  %8 = getelementptr inbounds nuw i8, ptr %7, i64 24
  store ptr null, ptr %8, align 8
  br label %9

9:                                                ; preds = %6, %2
  %10 = phi ptr [ %7, %6 ], [ %3, %2 ]
  %11 = getelementptr inbounds nuw i8, ptr %10, i64 32
  %12 = load ptr, ptr %11, align 8
  %.not2 = icmp eq ptr %12, null
  br i1 %.not2, label %16, label %13

13:                                               ; preds = %9
  tail call void @dshash_detach(ptr noundef nonnull %12) #16
  %14 = load ptr, ptr @CurrentSession, align 8
  %15 = getelementptr inbounds nuw i8, ptr %14, i64 32
  store ptr null, ptr %15, align 8
  br label %16

16:                                               ; preds = %13, %9
  %17 = phi ptr [ %14, %13 ], [ %10, %9 ]
  %18 = getelementptr inbounds nuw i8, ptr %17, i64 16
  store ptr null, ptr %18, align 8
  ret void
}